; Function Attrs: nounwind uwtable
define void @Gia_ManCollectNodes(ptr noundef %0, ptr noundef readonly captures(none) %1, ptr noundef %2, ptr noundef readonly captures(none) %3) local_unnamed_addr #0 {
  %5 = getelementptr i8, ptr %0, i64 264
  %.val22 = load ptr, ptr %5, align 8, !tbaa !56
  %.not25 = icmp eq ptr %.val22, null
  br i1 %.not25, label %.critedge2, label %6

6:                                                ; preds = %4
  %7 = getelementptr inbounds nuw i8, ptr %2, i64 4
  store i32 0, ptr %7, align 4, !tbaa !29
  tail call void @Gia_ManIncrementTravId(ptr noundef nonnull %0) #18
  %8 = getelementptr i8, ptr %1, i64 4
  %.val1926 = load i32, ptr %8, align 4, !tbaa !29
  %9 = icmp sgt i32 %.val1926, 0
  br i1 %9, label %.lr.ph, label %.critedge.preheader

.lr.ph:                                           ; preds = %6
  %10 = getelementptr i8, ptr %1, i64 8
  %.val21 = load ptr, ptr %10, align 8, !tbaa !40
  %11 = getelementptr i8, ptr %0, i64 176
  %12 = getelementptr i8, ptr %0, i64 616
  %.val24 = load ptr, ptr %12, align 8, !tbaa !64
  %.val23.pre = load i32, ptr %11, align 8, !tbaa !63
  br label %16

.critedge.preheader:                              ; preds = %16, %6
  %13 = getelementptr i8, ptr %3, i64 4
  %.val28 = load i32, ptr %13, align 4, !tbaa !29
  %14 = icmp sgt i32 %.val28, 0
  br i1 %14, label %.lr.ph30, label %.critedge2

.lr.ph30:                                         ; preds = %.critedge.preheader
  %15 = getelementptr i8, ptr %3, i64 8
  br label %.critedge

16:                                               ; preds = %.lr.ph, %16
  %indvars.iv = phi i64 [ 0, %.lr.ph ], [ %indvars.iv.next, %16 ]
  %17 = getelementptr inbounds nuw i32, ptr %.val21, i64 %indvars.iv
  %18 = load i32, ptr %17, align 4, !tbaa !31
  %19 = sext i32 %18 to i64
  %20 = getelementptr inbounds i32, ptr %.val24, i64 %19
  store i32 %.val23.pre, ptr %20, align 4, !tbaa !31
  %indvars.iv.next = add nuw nsw i64 %indvars.iv, 1
  %.val19 = load i32, ptr %8, align 4, !tbaa !29
  %21 = sext i32 %.val19 to i64
  %22 = icmp slt i64 %indvars.iv.next, %21
  br i1 %22, label %16, label %.critedge.preheader, !llvm.loop !65

.critedge:                                        ; preds = %.lr.ph30, %.critedge
  %indvars.iv32 = phi i64 [ 0, %.lr.ph30 ], [ %indvars.iv.next33, %.critedge ]
  %.val20 = load ptr, ptr %15, align 8, !tbaa !40
  %23 = getelementptr inbounds nuw i32, ptr %.val20, i64 %indvars.iv32
  %24 = load i32, ptr %23, align 4, !tbaa !31
  tail call void @Gia_ManCollectNodes_rec(ptr noundef nonnull %0, i32 noundef %24, ptr noundef %2)
  %indvars.iv.next33 = add nuw nsw i64 %indvars.iv32, 1
  %.val = load i32, ptr %13, align 4, !tbaa !29
  %25 = sext i32 %.val to i64
  %26 = icmp slt i64 %indvars.iv.next33, %25
  br i1 %26, label %.critedge, label %.critedge2, !llvm.loop !66

.critedge2:                                       ; preds = %.critedge, %.critedge.preheader, %4
  ret void
}